target datalayout = "e-m:e-p270:32:32-p271:32:32-p272:64:64-i64:64-i128:128-f80:128-n8:16:32:64-S128"
target triple = "x86_64-pc-linux-gnu"

%struct.redisServer = type { i32, i64, ptr, ptr, ptr, i32, i32, i32, i32, i32, ptr, ptr, ptr, ptr, ptr, i32, i32, i32, i32, i64, i32, i32, i32, i32, ptr, i32, i32, [41 x i8], i32, i64, i32, i32, i32, ptr, ptr, i32, i32, i64, ptr, ptr, ptr, ptr, [2 x i32], i32, i32, i32, i32, i32, i32, [16 x ptr], i32, ptr, ptr, i32, [8 x %struct.connListener], i32, %struct.connListener, ptr, ptr, ptr, ptr, ptr, ptr, ptr, ptr, ptr, ptr, i32, ptr, i32, ptr, [3 x %struct.pause_event], [256 x i8], ptr, i64, i32, i32, [128 x i32], i32, i32, i64, i32, i32, i32, i32, i32, i64, i64, i64, i64, i64, i64, i64, i64, i64, i64, double, i64, i64, i64, i64, i64, i64, i64, i64, i64, i64, i64, i64, i64, i64, i64, i64, i64, i64, i64, i64, i64, double, i64, i64, i64, i64, i64, ptr, i64, i64, i64, %struct.malloc_stats, i64, i64, i64, i64, i64, i64, i64, i64, i64, i64, i64, i64, double, [4 x i64], i64, i64, i64, i64, [128 x i64], [128 x i64], i64, i64, [7 x %struct.anon], i64, i64, i64, i64, i64, i64, [4 x %struct.durationStats], i32, i32, i32, i32, i32, i32, i32, i32, i32, i32, i32, i32, i64, i32, i32, i32, i32, i64, i64, i32, i32, i32, i32, i32, ptr, [3 x %struct.clientBufferLimitsConfig], i32, i32, i32, ptr, i32, i32, i32, i32, i32, i32, ptr, ptr, i32, i32, i64, i64, i64, i64, i64, i32, i32, ptr, i32, i32, i64, i64, i64, i64, i64, i32, i32, i64, i32, i32, i32, i32, i32, i32, i32, i32, ptr, i32, i64, i64, i64, i64, i32, ptr, i32, ptr, i32, i32, i32, i64, i64, i64, i64, i32, i32, i32, i32, i32, i32, ptr, i32, i32, ptr, i32, i32, i32, [2 x i32], i32, %struct.redisOpArray, i32, ptr, i32, ptr, i32, i32, i32, i32, i32, i32, i32, [41 x i8], [41 x i8], i64, i64, i64, i64, i32, i32, ptr, i64, i64, %struct.replDataBuf, i64, i64, i32, i32, i32, i32, i32, i32, i32, i32, i32, i64, ptr, i64, ptr, ptr, ptr, i32, i32, ptr, ptr, i32, i32, i32, i64, i64, i64, i64, ptr, ptr, i32, ptr, i64, i32, i32, i32, i64, i32, i32, i32, i32, ptr, i32, i32, [41 x i8], i64, i32, ptr, i32, i32, i64, i64, i32, i32, i32, i32, i32, i64, [3 x i32], i32, i32, i32, [10 x i32], ptr, ptr, i32, i64, ptr, ptr, i32, i32, i32, i32, i64, i64, i64, i64, i64, i64, i64, i64, i64, i64, i32, i32, i64, i64, i32, i64, i64, i64, i64, i64, ptr, ptr, i32, ptr, i32, i32, i32, i32, i64, i64, ptr, ptr, i32, i32, i32, i32, i32, ptr, ptr, ptr, i32, i32, i32, i32, i32, i32, i32, i64, i32, i32, i64, i32, i32, i32, i32, i32, i32, i32, i64, ptr, ptr, i64, ptr, i32, %struct.aclInfo, i32, i64, i32, i32, i32, %struct.redisTLSContextConfig, ptr, ptr, ptr, ptr, ptr, i64, i32, ptr, i32, i32, i32, i64, i32, ptr }
%struct.connListener = type { [16 x i32], i32, ptr, i32, i32, ptr, ptr }
%struct.pause_event = type { i32, i64 }
%struct.malloc_stats = type { i64, i64, i64, i64, i64, i64, i64, i64, i64, i64, i64 }
%struct.anon = type { i64, i64, [16 x i64], i32 }
%struct.durationStats = type { i64, i64, i64 }
%struct.clientBufferLimitsConfig = type { i64, i64, i64 }
%struct.redisOpArray = type { ptr, i32, i32 }
%struct.replDataBuf = type { ptr, i64, i64, i64, i64 }
%struct.aclInfo = type { i64, i64, i64, i64 }
%struct.redisTLSContextConfig = type { ptr, ptr, ptr, ptr, ptr, ptr, ptr, ptr, ptr, ptr, ptr, ptr, i32, i32, i32, i32 }
%struct.__va_list_tag = type { i32, i32, ptr, ptr }
%struct.client = type { i64, i64, ptr, i8, i8, i8, i8, i32, ptr, ptr, ptr, ptr, ptr, i64, i64, i32, ptr, i32, i32, ptr, i64, ptr, ptr, ptr, ptr, ptr, i32, i32, i64, ptr, i64, ptr, i64, i64, i64, i32, ptr, i64, i64, i32, i32, i32, i32, i64, i64, ptr, i64, i64, i64, i64, i64, i64, i64, i64, [41 x i8], i32, ptr, i32, i32, i64, %struct.multiState, %struct.blockingState, i64, ptr, ptr, ptr, ptr, ptr, ptr, ptr, ptr, ptr, ptr, ptr, ptr, ptr, ptr, i64, ptr, i64, i32, ptr, ptr, ptr, i64, %struct.listNode, i64, i64, i32, i64, ptr }
%struct.multiState = type { ptr, i32, i32, i32, i64, i32 }
%struct.blockingState = type { i32, i64, i32, ptr, i32, i32, i64, ptr, ptr, i64 }
%struct.listNode = type { ptr, ptr, ptr }

@rdbFileBeingLoaded = dso_local global ptr null, align 8
@.str = private unnamed_addr constant [68 x i8] c"Internal error in RDB reading offset %llu, function at rdb.c:%d -> \00", align 1
@server = external global %struct.redisServer, align 8
@.str.1 = private unnamed_addr constant [3 x i8] c"%s\00", align 1
@rdbCheckMode = external global i32, align 4
@.str.2 = private unnamed_addr constant [1 x i8] zeroinitializer, align 1
@.str.3 = private unnamed_addr constant [36 x i8] c"Cannot check RDB that is a FIFO: %s\00", align 1
@.str.4 = private unnamed_addr constant [31 x i8] c"%s. Failure loading rdb format\00", align 1
@.str.5 = private unnamed_addr constant [91 x i8] c"%s. Failure loading rdb format from socket, assuming connection error, resuming operation.\00", align 1
@.str.6 = private unnamed_addr constant [51 x i8] c"Terminating server after rdb file reading failure.\00", align 1

; Function Attrs: nounwind uwtable
define dso_local void @rdbReportError(i32 noundef %0, i32 noundef %1, ptr noundef %2, ...) #0 {
  %4 = alloca i32, align 4
  %5 = alloca i32, align 4
  %6 = alloca ptr, align 8
  %7 = alloca [1 x %struct.__va_list_tag], align 16
  %8 = alloca [1024 x i8], align 16
  %9 = alloca i32, align 4
  %10 = alloca i32, align 4
  %11 = alloca [2 x ptr], align 16
  store i32 %0, ptr %4, align 4, !tbaa !5
  store i32 %1, ptr %5, align 4, !tbaa !5
  store ptr %2, ptr %6, align 8, !tbaa !9
  call void @llvm.lifetime.start.p0(i64 24, ptr %7) #15
  call void @llvm.lifetime.start.p0(i64 1024, ptr %8) #15
  call void @llvm.lifetime.start.p0(i64 4, ptr %9) #15
  %12 = getelementptr inbounds [1024 x i8], ptr %8, i64 0, i64 0
  %13 = load i64, ptr getelementptr inbounds nuw (%struct.redisServer, ptr @server, i32 0, i32 88), align 8, !tbaa !12
  %14 = load i32, ptr %5, align 4, !tbaa !5
  %15 = call i32 (ptr, i64, ptr, ...) @snprintf(ptr noundef %12, i64 noundef 1024, ptr noundef @.str, i64 noundef %13, i32 noundef %14) #15
  store i32 %15, ptr %9, align 4, !tbaa !5
  %16 = getelementptr inbounds [1 x %struct.__va_list_tag], ptr %7, i64 0, i64 0
  call void @llvm.va_start.p0(ptr %16)
  %17 = getelementptr inbounds [1024 x i8], ptr %8, i64 0, i64 0
  %18 = load i32, ptr %9, align 4, !tbaa !5
  %19 = sext i32 %18 to i64
  %20 = getelementptr inbounds i8, ptr %17, i64 %19
  %21 = load i32, ptr %9, align 4, !tbaa !5
  %22 = sext i32 %21 to i64
  %23 = sub i64 1024, %22
  %24 = load ptr, ptr %6, align 8, !tbaa !9
  %25 = getelementptr inbounds [1 x %struct.__va_list_tag], ptr %7, i64 0, i64 0
  %26 = call i32 @vsnprintf(ptr noundef %20, i64 noundef %23, ptr noundef %24, ptr noundef %25) #15
  %27 = getelementptr inbounds [1 x %struct.__va_list_tag], ptr %7, i64 0, i64 0
  call void @llvm.va_end.p0(ptr %27)
  %28 = load ptr, ptr getelementptr inbounds nuw (%struct.redisServer, ptr @server, i32 0, i32 63), align 8, !tbaa !40
  %29 = icmp eq ptr %28, null
  br i1 %29, label %35, label %30

30:                                               ; preds = %3
  %31 = load ptr, ptr getelementptr inbounds nuw (%struct.redisServer, ptr @server, i32 0, i32 63), align 8, !tbaa !40
  %32 = getelementptr inbounds nuw %struct.client, ptr %31, i32 0, i32 0
  %33 = load i64, ptr %32, align 8, !tbaa !41
  %34 = icmp eq i64 %33, -1
  br i1 %34, label %35, label %36

35:                                               ; preds = %30, %3
  br i1 false, label %37, label %46

36:                                               ; preds = %30
  br i1 true, label %37, label %46

37:                                               ; preds = %36, %35
  br label %38

38:                                               ; preds = %37
  %39 = load i32, ptr getelementptr inbounds nuw (%struct.redisServer, ptr @server, i32 0, i32 159), align 8, !tbaa !52
  %40 = icmp slt i32 1, %39
  br i1 %40, label %41, label %42

41:                                               ; preds = %38
  br label %45

42:                                               ; preds = %38
  %43 = getelementptr inbounds [1024 x i8], ptr %8, i64 0, i64 0
  call void (i32, ptr, ...) @_serverLog(i32 noundef 1, ptr noundef @.str.1, ptr noundef %43)
  br label %44

44:                                               ; preds = %42
  br label %45

45:                                               ; preds = %44, %41
  store i32 1, ptr %10, align 4
  br label %110

46:                                               ; preds = %36, %35
  %47 = load i32, ptr @rdbCheckMode, align 4, !tbaa !5
  %48 = icmp ne i32 %47, 0
  br i1 %48, label %49, label %51

49:                                               ; preds = %46
  %50 = getelementptr inbounds [1024 x i8], ptr %8, i64 0, i64 0
  call void (ptr, ...) @rdbCheckError(ptr noundef @.str.1, ptr noundef %50)
  br label %101

51:                                               ; preds = %46
  %52 = load ptr, ptr @rdbFileBeingLoaded, align 8, !tbaa !9
  %53 = icmp ne ptr %52, null
  br i1 %53, label %54, label %78

54:                                               ; preds = %51
  br label %55

55:                                               ; preds = %54
  %56 = load i32, ptr getelementptr inbounds nuw (%struct.redisServer, ptr @server, i32 0, i32 159), align 8, !tbaa !52
  %57 = icmp slt i32 3, %56
  br i1 %57, label %58, label %59

58:                                               ; preds = %55
  br label %62

59:                                               ; preds = %55
  %60 = getelementptr inbounds [1024 x i8], ptr %8, i64 0, i64 0
  call void (i32, ptr, ...) @_serverLog(i32 noundef 3, ptr noundef @.str.1, ptr noundef %60)
  br label %61

61:                                               ; preds = %59
  br label %62

62:                                               ; preds = %61, %58
  call void @llvm.lifetime.start.p0(i64 16, ptr %11) #15
  store ptr @.str.2, ptr %11, align 8, !tbaa !9
  %63 = getelementptr inbounds ptr, ptr %11, i64 1
  %64 = load ptr, ptr @rdbFileBeingLoaded, align 8, !tbaa !9
  store ptr %64, ptr %63, align 8, !tbaa !9
  %65 = getelementptr inbounds [2 x ptr], ptr %11, i64 0, i64 1
  %66 = load ptr, ptr %65, align 8, !tbaa !9
  %67 = call i32 @anetIsFifo(ptr noundef %66)
  %68 = icmp ne i32 %67, 0
  br i1 %68, label %69, label %72

69:                                               ; preds = %62
  %70 = getelementptr inbounds [2 x ptr], ptr %11, i64 0, i64 1
  %71 = load ptr, ptr %70, align 8, !tbaa !9
  call void (ptr, ...) @rdbCheckError(ptr noundef @.str.3, ptr noundef %71)
  store i32 1, ptr %10, align 4
  br label %75

72:                                               ; preds = %62
  %73 = getelementptr inbounds [2 x ptr], ptr %11, i64 0, i64 0
  %74 = call i32 @redis_check_rdb_main(i32 noundef 2, ptr noundef %73, ptr noundef null)
  store i32 0, ptr %10, align 4
  br label %75

75:                                               ; preds = %72, %69
  call void @llvm.lifetime.end.p0(i64 16, ptr %11) #15
  %76 = load i32, ptr %10, align 4
  switch i32 %76, label %110 [
    i32 0, label %77
  ]

77:                                               ; preds = %75
  br label %100

78:                                               ; preds = %51
  %79 = load i32, ptr %4, align 4, !tbaa !5
  %80 = icmp ne i32 %79, 0
  br i1 %80, label %81, label %90

81:                                               ; preds = %78
  br label %82

82:                                               ; preds = %81
  %83 = load i32, ptr getelementptr inbounds nuw (%struct.redisServer, ptr @server, i32 0, i32 159), align 8, !tbaa !52
  %84 = icmp slt i32 3, %83
  br i1 %84, label %85, label %86

85:                                               ; preds = %82
  br label %89

86:                                               ; preds = %82
  %87 = getelementptr inbounds [1024 x i8], ptr %8, i64 0, i64 0
  call void (i32, ptr, ...) @_serverLog(i32 noundef 3, ptr noundef @.str.4, ptr noundef %87)
  br label %88

88:                                               ; preds = %86
  br label %89

89:                                               ; preds = %88, %85
  br label %99

90:                                               ; preds = %78
  br label %91

91:                                               ; preds = %90
  %92 = load i32, ptr getelementptr inbounds nuw (%struct.redisServer, ptr @server, i32 0, i32 159), align 8, !tbaa !52
  %93 = icmp slt i32 3, %92
  br i1 %93, label %94, label %95

94:                                               ; preds = %91
  br label %98

95:                                               ; preds = %91
  %96 = getelementptr inbounds [1024 x i8], ptr %8, i64 0, i64 0
  call void (i32, ptr, ...) @_serverLog(i32 noundef 3, ptr noundef @.str.5, ptr noundef %96)
  br label %97

97:                                               ; preds = %95
  br label %98

98:                                               ; preds = %97, %94
  store i32 1, ptr %10, align 4
  br label %110

99:                                               ; preds = %89
  br label %100

100:                                              ; preds = %99, %77
  br label %101

101:                                              ; preds = %100, %49
  br label %102

102:                                              ; preds = %101
  br label %103

103:                                              ; preds = %102
  %104 = load i32, ptr getelementptr inbounds nuw (%struct.redisServer, ptr @server, i32 0, i32 159), align 8, !tbaa !52
  %105 = icmp slt i32 3, %104
  br i1 %105, label %106, label %107

106:                                              ; preds = %103
  br label %109

107:                                              ; preds = %103
  call void (i32, ptr, ...) @_serverLog(i32 noundef 3, ptr noundef @.str.6)
  br label %108

108:                                              ; preds = %107
  br label %109

109:                                              ; preds = %108, %106
  call void @exit(i32 noundef 1) #16
  unreachable

110:                                              ; preds = %98, %75, %45
  call void @llvm.lifetime.end.p0(i64 4, ptr %9) #15
  call void @llvm.lifetime.end.p0(i64 1024, ptr %8) #15
  call void @llvm.lifetime.end.p0(i64 24, ptr %7) #15
  ret void
}