; Function Attrs: nounwind uwtable
define dso_local void @rdbReportError(i32 noundef %0, i32 noundef %1, ptr noundef readonly captures(none) %2, ...) local_unnamed_addr #0 {
  %4 = alloca [1 x %struct.__va_list_tag], align 16
  %5 = alloca [1024 x i8], align 16
  %6 = alloca [2 x ptr], align 16
  call void @llvm.lifetime.start.p0(i64 24, ptr nonnull %4) #23
  call void @llvm.lifetime.start.p0(i64 1024, ptr nonnull %5) #23
  %7 = load i64, ptr getelementptr inbounds nuw (i8, ptr @server, i64 2440), align 8, !tbaa !5
  %8 = call i32 (ptr, i64, ptr, ...) @snprintf(ptr noundef nonnull dereferenceable(1) %5, i64 noundef 1024, ptr noundef nonnull @.str, i64 noundef %7, i32 noundef %1) #23
  call void @llvm.va_start.p0(ptr nonnull %4)
  %9 = sext i32 %8 to i64
  %10 = getelementptr inbounds i8, ptr %5, i64 %9
  %11 = sub nsw i64 1024, %9
  %12 = call i32 @vsnprintf(ptr noundef nonnull %10, i64 noundef %11, ptr noundef %2, ptr noundef nonnull %4) #23
  call void @llvm.va_end.p0(ptr nonnull %4)
  %13 = load ptr, ptr getelementptr inbounds nuw (i8, ptr @server, i64 1480), align 8, !tbaa !38
  %14 = icmp eq ptr %13, null
  br i1 %14, label %22, label %15

15:                                               ; preds = %3
  %16 = load i64, ptr %13, align 8, !tbaa !39
  %17 = icmp eq i64 %16, -1
  br i1 %17, label %22, label %18

18:                                               ; preds = %15
  %19 = load i32, ptr getelementptr inbounds nuw (i8, ptr @server, i64 6288), align 8, !tbaa !50
  %20 = icmp sgt i32 %19, 1
  br i1 %20, label %47, label %21

21:                                               ; preds = %18
  call void (i32, ptr, ...) @_serverLog(i32 noundef 1, ptr noundef nonnull @.str.1, ptr noundef nonnull %5) #23
  br label %47

22:                                               ; preds = %3, %15
  %23 = load i32, ptr @rdbCheckMode, align 4, !tbaa !51
  %.not = icmp eq i32 %23, 0
  br i1 %.not, label %25, label %24

24:                                               ; preds = %22
  call void (ptr, ...) @rdbCheckError(ptr noundef nonnull @.str.1, ptr noundef nonnull %5) #23
  br label %44

25:                                               ; preds = %22
  %26 = load ptr, ptr @rdbFileBeingLoaded, align 8, !tbaa !52
  %.not6 = icmp eq ptr %26, null
  br i1 %.not6, label %37, label %27

27:                                               ; preds = %25
  %28 = load i32, ptr getelementptr inbounds nuw (i8, ptr @server, i64 6288), align 8, !tbaa !50
  %29 = icmp sgt i32 %28, 3
  br i1 %29, label %31, label %30

30:                                               ; preds = %27
  call void (i32, ptr, ...) @_serverLog(i32 noundef 3, ptr noundef nonnull @.str.1, ptr noundef nonnull %5) #23
  %.pre = load ptr, ptr @rdbFileBeingLoaded, align 8, !tbaa !52
  br label %31

31:                                               ; preds = %27, %30
  %32 = phi ptr [ %26, %27 ], [ %.pre, %30 ]
  call void @llvm.lifetime.start.p0(i64 16, ptr nonnull %6) #23
  store ptr @.str.2, ptr %6, align 16, !tbaa !52
  %33 = getelementptr inbounds nuw i8, ptr %6, i64 8
  store ptr %32, ptr %33, align 8, !tbaa !52
  %34 = call i32 @anetIsFifo(ptr noundef %32) #23
  %.not8 = icmp eq i32 %34, 0
  br i1 %.not8, label %.thread, label %36

.thread:                                          ; preds = %31
  %35 = call i32 @redis_check_rdb_main(i32 noundef 2, ptr noundef nonnull %6, ptr noundef null) #23
  call void @llvm.lifetime.end.p0(i64 16, ptr nonnull %6) #23
  br label %44

36:                                               ; preds = %31
  call void (ptr, ...) @rdbCheckError(ptr noundef nonnull @.str.3, ptr noundef %32) #23
  call void @llvm.lifetime.end.p0(i64 16, ptr nonnull %6) #23
  br label %47

37:                                               ; preds = %25
  %.not7 = icmp eq i32 %0, 0
  %38 = load i32, ptr getelementptr inbounds nuw (i8, ptr @server, i64 6288), align 8, !tbaa !50
  %39 = icmp sgt i32 %38, 3
  br i1 %.not7, label %42, label %40

40:                                               ; preds = %37
  br i1 %39, label %.thread9, label %41

41:                                               ; preds = %40
  call void (i32, ptr, ...) @_serverLog(i32 noundef 3, ptr noundef nonnull @.str.4, ptr noundef nonnull %5) #23
  br label %44

42:                                               ; preds = %37
  br i1 %39, label %47, label %43

43:                                               ; preds = %42
  call void (i32, ptr, ...) @_serverLog(i32 noundef 3, ptr noundef nonnull @.str.5, ptr noundef nonnull %5) #23
  br label %47

44:                                               ; preds = %.thread, %41, %24
  %.pr = load i32, ptr getelementptr inbounds nuw (i8, ptr @server, i64 6288), align 8, !tbaa !50
  %45 = icmp sgt i32 %.pr, 3
  br i1 %45, label %.thread9, label %46

46:                                               ; preds = %44
  call void (i32, ptr, ...) @_serverLog(i32 noundef 3, ptr noundef nonnull @.str.6) #23
  br label %.thread9

.thread9:                                         ; preds = %40, %44, %46
  call void @exit(i32 noundef 1) #24
  unreachable

47:                                               ; preds = %36, %43, %42, %21, %18
  call void @llvm.lifetime.end.p0(i64 1024, ptr nonnull %5) #23
  call void @llvm.lifetime.end.p0(i64 24, ptr nonnull %4) #23
  ret void
}